; Function Attrs: mustprogress nounwind uwtable
define dso_local void @_ZN4llvm3rdf13DataFlowGraph8DefStack3popEv(ptr noundef nonnull align 8 dereferenceable(24) %0) local_unnamed_addr #0 align 2 {
  %2 = getelementptr inbounds nuw i8, ptr %0, i64 8
  %3 = load ptr, ptr %2, align 8
  %4 = load ptr, ptr %0, align 8
  %5 = ptrtoint ptr %3 to i64
  %6 = ptrtoint ptr %4 to i64
  %7 = sub i64 %5, %6
  %8 = ashr exact i64 %7, 4
  %9 = trunc i64 %8 to i32
  br label %_ZNK4llvm3rdf13DataFlowGraph8DefStack11isDelimiterERKNS0_8NodeAddrIPNS0_7DefNodeEEEj.exit7.i

_ZNK4llvm3rdf13DataFlowGraph8DefStack11isDelimiterERKNS0_8NodeAddrIPNS0_7DefNodeEEEj.exit7.i: ; preds = %12, %1
  %.0.i = phi i32 [ %9, %1 ], [ %10, %12 ]
  %10 = add i32 %.0.i, -1
  %11 = icmp eq i32 %10, 0
  br i1 %11, label %_ZNK4llvm3rdf13DataFlowGraph8DefStack8nextDownEj.exit, label %12

12:                                               ; preds = %_ZNK4llvm3rdf13DataFlowGraph8DefStack11isDelimiterERKNS0_8NodeAddrIPNS0_7DefNodeEEEj.exit7.i
  %13 = add i32 %.0.i, -2
  %14 = zext i32 %13 to i64
  %15 = getelementptr inbounds nuw %"struct.llvm::rdf::NodeAddr.65", ptr %4, i64 %14
  %16 = load ptr, ptr %15, align 8
  %17 = icmp eq ptr %16, null
  br i1 %17, label %_ZNK4llvm3rdf13DataFlowGraph8DefStack11isDelimiterERKNS0_8NodeAddrIPNS0_7DefNodeEEEj.exit7.i, label %_ZNK4llvm3rdf13DataFlowGraph8DefStack8nextDownEj.exit, !llvm.loop !10

_ZNK4llvm3rdf13DataFlowGraph8DefStack8nextDownEj.exit: ; preds = %_ZNK4llvm3rdf13DataFlowGraph8DefStack11isDelimiterERKNS0_8NodeAddrIPNS0_7DefNodeEEEj.exit7.i, %12
  %18 = zext i32 %10 to i64
  %19 = icmp ult i64 %8, %18
  br i1 %19, label %20, label %22

20:                                               ; preds = %_ZNK4llvm3rdf13DataFlowGraph8DefStack8nextDownEj.exit
  %21 = sub nuw nsw i64 %18, %8
  tail call void @_ZNSt6vectorIN4llvm3rdf8NodeAddrIPNS1_7DefNodeEEESaIS5_EE17_M_default_appendEm(ptr noundef nonnull align 8 dereferenceable(24) %0, i64 noundef %21)
  br label %_ZNSt6vectorIN4llvm3rdf8NodeAddrIPNS1_7DefNodeEEESaIS5_EE6resizeEm.exit

22:                                               ; preds = %_ZNK4llvm3rdf13DataFlowGraph8DefStack8nextDownEj.exit
  %23 = icmp ugt i64 %8, %18
  br i1 %23, label %24, label %_ZNSt6vectorIN4llvm3rdf8NodeAddrIPNS1_7DefNodeEEESaIS5_EE6resizeEm.exit

24:                                               ; preds = %22
  %25 = getelementptr inbounds nuw %"struct.llvm::rdf::NodeAddr.65", ptr %4, i64 %18
  %.not.i.i = icmp eq ptr %3, %25
  br i1 %.not.i.i, label %_ZNSt6vectorIN4llvm3rdf8NodeAddrIPNS1_7DefNodeEEESaIS5_EE6resizeEm.exit, label %26

26:                                               ; preds = %24
  store ptr %25, ptr %2, align 8
  br label %_ZNSt6vectorIN4llvm3rdf8NodeAddrIPNS1_7DefNodeEEESaIS5_EE6resizeEm.exit

_ZNSt6vectorIN4llvm3rdf8NodeAddrIPNS1_7DefNodeEEESaIS5_EE6resizeEm.exit: ; preds = %20, %22, %24, %26
  ret void
}